target datalayout = "e-m:e-p270:32:32-p271:32:32-p272:64:64-i64:64-i128:128-f80:128-n8:16:32:64-S128"
target triple = "x86_64-pc-linux-gnu"

%"struct.p2t::Point" = type { double, double, %"class.std::vector" }
%"class.std::vector" = type { %"struct.std::_Vector_base" }
%"struct.std::_Vector_base" = type { %"struct.std::_Vector_base<p2t::Edge *, std::allocator<p2t::Edge *>>::_Vector_impl" }
%"struct.std::_Vector_base<p2t::Edge *, std::allocator<p2t::Edge *>>::_Vector_impl" = type { %"struct.std::_Vector_base<p2t::Edge *, std::allocator<p2t::Edge *>>::_Vector_impl_data" }
%"struct.std::_Vector_base<p2t::Edge *, std::allocator<p2t::Edge *>>::_Vector_impl_data" = type { ptr, ptr, ptr }

; Function Attrs: mustprogress nounwind uwtable
define hidden noundef double @_ZNK3p2t5Sweep5AngleEPKNS_5PointES3_S3_(ptr noundef nonnull align 8 dereferenceable(24) %0, ptr noundef %1, ptr noundef %2, ptr noundef %3) #2 align 2 {
  %5 = alloca ptr, align 8
  %6 = alloca ptr, align 8
  %7 = alloca ptr, align 8
  %8 = alloca ptr, align 8
  %9 = alloca double, align 8
  %10 = alloca double, align 8
  %11 = alloca double, align 8
  %12 = alloca double, align 8
  %13 = alloca double, align 8
  %14 = alloca double, align 8
  %15 = alloca double, align 8
  %16 = alloca double, align 8
  store ptr %0, ptr %5, align 8
  store ptr %1, ptr %6, align 8
  store ptr %2, ptr %7, align 8
  store ptr %3, ptr %8, align 8
  call void @llvm.lifetime.start.p0(i64 8, ptr %9) #14
  %17 = load ptr, ptr %6, align 8
  %18 = getelementptr inbounds nuw %"struct.p2t::Point", ptr %17, i32 0, i32 0
  %19 = load double, ptr %18, align 8
  store double %19, ptr %9, align 8
  call void @llvm.lifetime.start.p0(i64 8, ptr %10) #14
  %20 = load ptr, ptr %6, align 8
  %21 = getelementptr inbounds nuw %"struct.p2t::Point", ptr %20, i32 0, i32 1
  %22 = load double, ptr %21, align 8
  store double %22, ptr %10, align 8
  call void @llvm.lifetime.start.p0(i64 8, ptr %11) #14
  %23 = load ptr, ptr %7, align 8
  %24 = getelementptr inbounds nuw %"struct.p2t::Point", ptr %23, i32 0, i32 0
  %25 = load double, ptr %24, align 8
  %26 = load double, ptr %9, align 8
  %27 = fsub double %25, %26
  store double %27, ptr %11, align 8
  call void @llvm.lifetime.start.p0(i64 8, ptr %12) #14
  %28 = load ptr, ptr %7, align 8
  %29 = getelementptr inbounds nuw %"struct.p2t::Point", ptr %28, i32 0, i32 1
  %30 = load double, ptr %29, align 8
  %31 = load double, ptr %10, align 8
  %32 = fsub double %30, %31
  store double %32, ptr %12, align 8
  call void @llvm.lifetime.start.p0(i64 8, ptr %13) #14
  %33 = load ptr, ptr %8, align 8
  %34 = getelementptr inbounds nuw %"struct.p2t::Point", ptr %33, i32 0, i32 0
  %35 = load double, ptr %34, align 8
  %36 = load double, ptr %9, align 8
  %37 = fsub double %35, %36
  store double %37, ptr %13, align 8
  call void @llvm.lifetime.start.p0(i64 8, ptr %14) #14
  %38 = load ptr, ptr %8, align 8
  %39 = getelementptr inbounds nuw %"struct.p2t::Point", ptr %38, i32 0, i32 1
  %40 = load double, ptr %39, align 8
  %41 = load double, ptr %10, align 8
  %42 = fsub double %40, %41
  store double %42, ptr %14, align 8
  call void @llvm.lifetime.start.p0(i64 8, ptr %15) #14
  %43 = load double, ptr %11, align 8
  %44 = load double, ptr %14, align 8
  %45 = load double, ptr %12, align 8
  %46 = load double, ptr %13, align 8
  %47 = fmul double %45, %46
  %48 = fneg double %47
  %49 = call double @llvm.fmuladd.f64(double %43, double %44, double %48)
  store double %49, ptr %15, align 8
  call void @llvm.lifetime.start.p0(i64 8, ptr %16) #14
  %50 = load double, ptr %11, align 8
  %51 = load double, ptr %13, align 8
  %52 = load double, ptr %12, align 8
  %53 = load double, ptr %14, align 8
  %54 = fmul double %52, %53
  %55 = call double @llvm.fmuladd.f64(double %50, double %51, double %54)
  store double %55, ptr %16, align 8
  %56 = load double, ptr %15, align 8
  %57 = load double, ptr %16, align 8
  %58 = call double @atan2(double noundef %56, double noundef %57) #14
  call void @llvm.lifetime.end.p0(i64 8, ptr %16) #14
  call void @llvm.lifetime.end.p0(i64 8, ptr %15) #14
  call void @llvm.lifetime.end.p0(i64 8, ptr %14) #14
  call void @llvm.lifetime.end.p0(i64 8, ptr %13) #14
  call void @llvm.lifetime.end.p0(i64 8, ptr %12) #14
  call void @llvm.lifetime.end.p0(i64 8, ptr %11) #14
  call void @llvm.lifetime.end.p0(i64 8, ptr %10) #14
  call void @llvm.lifetime.end.p0(i64 8, ptr %9) #14
  ret double %58
}